; Function Attrs: nounwind uwtable
define dso_local i32 @ReadInt(ptr noundef %0) local_unnamed_addr #0 {
  %2 = getelementptr inbounds nuw i8, ptr %0, i64 104
  %3 = load i32, ptr %2, align 8
  %4 = icmp sgt i32 %3, 65536
  br i1 %4, label %5, label %10

5:                                                ; preds = %1
  %6 = getelementptr inbounds nuw i8, ptr %0, i64 256
  %7 = load ptr, ptr %6, align 8
  %8 = tail call i32 %7(ptr noundef nonnull %0) #22
  %9 = icmp eq i32 %8, 0
  br label %10

10:                                               ; preds = %5, %1
  %.015 = phi i1 [ %9, %5 ], [ true, %1 ]
  %11 = getelementptr inbounds nuw i8, ptr %0, i64 128
  %12 = load i64, ptr %11, align 8
  %.not22 = icmp eq i64 %12, 0
  br i1 %.not22, label %._crit_edge, label %.lr.ph

.lr.ph:                                           ; preds = %10
  %13 = getelementptr inbounds nuw i8, ptr %0, i64 256
  br label %14

14:                                               ; preds = %.lr.ph, %14
  %.021 = phi i32 [ 0, %.lr.ph ], [ %20, %14 ]
  %.01620 = phi i32 [ 0, %.lr.ph ], [ %21, %14 ]
  %.01719 = phi i32 [ 0, %.lr.ph ], [ %.1, %14 ]
  %15 = load ptr, ptr %13, align 8
  %16 = tail call i32 %15(ptr noundef nonnull %0) #22
  %17 = and i32 %16, 255
  %.not = icmp eq i32 %17, 0
  %18 = shl i32 %17, %.021
  %19 = select i1 %.not, i32 0, i32 %18
  %.1 = add i32 %19, %.01719
  %20 = add i32 %.021, 8
  %21 = add i32 %.01620, 1
  %22 = sext i32 %21 to i64
  %23 = load i64, ptr %11, align 8
  %24 = icmp ugt i64 %23, %22
  br i1 %24, label %14, label %._crit_edge, !llvm.loop !45

._crit_edge:                                      ; preds = %14, %10
  %.017.lcssa = phi i32 [ 0, %10 ], [ %.1, %14 ]
  %25 = sub i32 0, %.017.lcssa
  %spec.select = select i1 %.015, i32 %.017.lcssa, i32 %25
  ret i32 %spec.select
}